target datalayout = "e-m:e-p270:32:32-p271:32:32-p272:64:64-i64:64-i128:128-f80:128-n8:16:32:64-S128"
target triple = "x86_64-pc-linux-gnu"

@.str.7 = private unnamed_addr constant [6 x i8] c"\22%s\22 \00", align 1

; Function Attrs: mustprogress nounwind uwtable
define linkonce_odr hidden void @_ZNK6Thread8print_onEP12outputStream(ptr noundef nonnull align 8 dereferenceable(888) %0, ptr noundef %1) unnamed_addr #1 comdat align 2 {
  %3 = alloca ptr, align 8
  %4 = alloca ptr, align 8
  store ptr %0, ptr %3, align 8
  store ptr %1, ptr %4, align 8
  %5 = load ptr, ptr %3, align 8
  %6 = load ptr, ptr %4, align 8
  call void @_ZNK6Thread8print_onEP12outputStreamb(ptr noundef nonnull align 8 dereferenceable(888) %5, ptr noundef %6, i1 noundef zeroext false)
  ret void
}

; Function Attrs: mustprogress nounwind uwtable
define hidden void @_ZNK13WatcherThread8print_onEP12outputStream(ptr noundef nonnull align 8 dereferenceable(896) %0, ptr noundef %1) unnamed_addr #1 align 2 {
  %3 = alloca ptr, align 8
  %4 = alloca ptr, align 8
  store ptr %0, ptr %3, align 8
  store ptr %1, ptr %4, align 8
  %5 = load ptr, ptr %3, align 8
  %6 = load ptr, ptr %4, align 8
  %7 = load ptr, ptr %5, align 8
  %8 = getelementptr inbounds ptr, ptr %7, i64 21
  %9 = load ptr, ptr %8, align 8
  %10 = call noundef ptr %9(ptr noundef nonnull align 8 dereferenceable(896) %5)
  call void (ptr, ptr, ...) @_ZN12outputStream5printEPKcz(ptr noundef nonnull align 8 dereferenceable(56) %6, ptr noundef @.str.7, ptr noundef %10)
  %11 = load ptr, ptr %4, align 8
  call void @_ZNK6Thread8print_onEP12outputStream(ptr noundef nonnull align 8 dereferenceable(888) %5, ptr noundef %11)
  %12 = load ptr, ptr %4, align 8
  call void @_ZN12outputStream2crEv(ptr noundef nonnull align 8 dereferenceable(56) %12)
  ret void
}