; Function Attrs: mustprogress nounwind uwtable
define hidden void @_ZNK13WatcherThread8print_onEP12outputStream(ptr noundef nonnull align 8 dereferenceable(896) %0, ptr noundef %1) unnamed_addr #0 align 2 {
  %3 = load ptr, ptr %0, align 8
  %4 = getelementptr inbounds i8, ptr %3, i64 168
  %5 = load ptr, ptr %4, align 8
  %6 = tail call noundef ptr %5(ptr noundef nonnull align 8 dereferenceable(896) %0) #11
  tail call void (ptr, ptr, ...) @_ZN12outputStream5printEPKcz(ptr noundef nonnull align 8 dereferenceable(56) %1, ptr noundef nonnull @.str.7, ptr noundef %6) #11
  tail call void @_ZNK6Thread8print_onEP12outputStreamb(ptr noundef nonnull align 8 dereferenceable(888) %0, ptr noundef nonnull %1, i1 noundef zeroext false) #11
  tail call void @_ZN12outputStream2crEv(ptr noundef nonnull align 8 dereferenceable(56) %1) #11
  ret void
}